=== 0x800007fc..0x800008f8 ===
0x800007fc: fd010113  addi sp, sp, -48
0x80000800: 02112623  sw ra, 44(sp)
0x80000804: 02812423  sw s0, 40(sp)
0x80000808: 03010413  addi s0, sp, 48
0x8000080c: fca42e23  sw a0, -36(s0)
0x80000810: fcb42c23  sw a1, -40(s0)
0x80000814: fe042623  sw x0, -20(s0)
0x80000818: 0ac0006f  jal x0, 0x800008c4
0x8000081c: fe042423  sw x0, -24(s0)
0x80000820: 08c0006f  jal x0, 0x800008ac
0x80000824: fec42703  lw a4, -20(s0)
0x80000828: 00070793  addi a5, a4, 0
0x8000082c: 00179793  slli a5, a5, 1
0x80000830: 00e787b3  add a5, a5, a4
0x80000834: 00479713  slli a4, a5, 4
0x80000838: 40f70733  sub a4, a4, a5
0x8000083c: 00371793  slli a5, a4, 3
0x80000840: 00078713  addi a4, a5, 0
0x80000844: fdc42783  lw a5, -36(s0)
0x80000848: 00e78733  add a4, a5, a4
0x8000084c: fe842783  lw a5, -24(s0)
0x80000850: 00279793  slli a5, a5, 2
0x80000854: 00f707b3  add a5, a4, a5
0x80000858: 0007a683  lw a3, 0(a5)
0x8000085c: fec42703  lw a4, -20(s0)
0x80000860: 00070793  addi a5, a4, 0
0x80000864: 00179793  slli a5, a5, 1
0x80000868: 00e787b3  add a5, a5, a4
0x8000086c: 00479713  slli a4, a5, 4
0x80000870: 40f70733  sub a4, a4, a5
0x80000874: 00371793  slli a5, a4, 3
0x80000878: 00078713  addi a4, a5, 0
0x8000087c: fd842783  lw a5, -40(s0)
0x80000880: 00e78733  add a4, a5, a4
0x80000884: fe842783  lw a5, -24(s0)
0x80000888: 00279793  slli a5, a5, 2
0x8000088c: 00f707b3  add a5, a4, a5
0x80000890: 0007a783  lw a5, 0(a5)
0x80000894: 00f68663  beq a3, a5, 0x800008a0
0x80000898: 00000793  addi a5, x0, 0
0x8000089c: 0380006f  jal x0, 0x800008d4
0x800008a0: fe842783  lw a5, -24(s0)
0x800008a4: 00178793  addi a5, a5, 1
0x800008a8: fef42423  sw a5, -24(s0)
0x800008ac: fe842703  lw a4, -24(s0)
0x800008b0: 05900793  addi a5, x0, 89
0x800008b4: f6e7d8e3  bge a5, a4, 0x80000824
0x800008b8: fec42783  lw a5, -20(s0)
0x800008bc: 00178793  addi a5, a5, 1
0x800008c0: fef42623  sw a5, -20(s0)
0x800008c4: fec42703  lw a4, -20(s0)
0x800008c8: 05900793  addi a5, x0, 89
0x800008cc: f4e7d8e3  bge a5, a4, 0x8000081c
0x800008d0: 00100793  addi a5, x0, 1
0x800008d4: 00078513  addi a0, a5, 0
0x800008d8: 02c12083  lw ra, 44(sp)
0x800008dc: 02812403  lw s0, 40(sp)
0x800008e0: 03010113  addi sp, sp, 48
0x800008e4: 00008067  jalr x0, 0(ra)
0x800008e8: fd010113  addi sp, sp, -48
0x800008ec: 02112623  sw ra, 44(sp)
0x800008f0: 02812423  sw s0, 40(sp)
0x800008f4: 02912223  sw s1, 36(sp)
0x800008f8: 03010413  addi s0, sp, 48

=== 0x80000f20..0x80001080 ===
0x80000f20: 02c12083  lw ra, 44(sp)
0x80000f24: 02812403  lw s0, 40(sp)
0x80000f28: 03010113  addi sp, sp, 48
0x80000f2c: 00008067  jalr x0, 0(ra)
0x80000f30: ff010113  addi sp, sp, -16
0x80000f34: 00112623  sw ra, 12(sp)
0x80000f38: 00812423  sw s0, 8(sp)
0x80000f3c: 01010413  addi s0, sp, 16
0x80000f40: c4cff0ef  jal ra, 0x8000038c
0x80000f44: ca0ff0ef  jal ra, 0x800003e4
0x80000f48: 00050793  addi a5, a0, 0
0x80000f4c: 00078513  addi a0, a5, 0
0x80000f50: a00ff0ef  jal ra, 0x80000150
0x80000f54: b34ff0ef  jal ra, 0x80000288
0x80000f58: 00000f93  addi t6, x0, 0
0x80000f5c: 00000013  addi x0, x0, 0
0x80000f60: 00c12083  lw ra, 12(sp)
0x80000f64: 00812403  lw s0, 8(sp)
0x80000f68: 01010113  addi sp, sp, 16
0x80000f6c: 00008067  jalr x0, 0(ra)
0x80000f70: ff010113  addi sp, sp, -16
0x80000f74: 00112623  sw ra, 12(sp)
0x80000f78: 00812423  sw s0, 8(sp)
0x80000f7c: 01010413  addi s0, sp, 16
0x80000f80: c0cff0ef  jal ra, 0x8000038c
0x80000f84: c60ff0ef  jal ra, 0x800003e4
0x80000f88: 00050793  addi a5, a0, 0
0x80000f8c: 00078513  addi a0, a5, 0
0x80000f90: 9c0ff0ef  jal ra, 0x80000150
0x80000f94: a58ff0ef  jal ra, 0x800001ec
0x80000f98: 00100f93  addi t6, x0, 1
0x80000f9c: 00000013  addi x0, x0, 0
0x80000fa0: 00c12083  lw ra, 12(sp)
0x80000fa4: 00812403  lw s0, 8(sp)
0x80000fa8: 01010113  addi sp, sp, 16
0x80000fac: 00008067  jalr x0, 0(ra)
0x80000fb0: fe010113  addi sp, sp, -32
0x80000fb4: 00112e23  sw ra, 28(sp)
0x80000fb8: 00812c23  sw s0, 24(sp)
0x80000fbc: 02010413  addi s0, sp, 32
0x80000fc0: 944ff0ef  jal ra, 0x80000104
0x80000fc4: b70ff0ef  jal ra, 0x80000334
0x80000fc8: fe042623  sw x0, -20(s0)
0x80000fcc: 0980006f  jal x0, 0x80001064
0x80000fd0: fec42583  lw a1, -20(s0)
0x80000fd4: 801147b7  lui a5, 0x80114
0x80000fd8: 8c478513  addi a0, a5, -1852
0x80000fdc: 90dff0ef  jal ra, 0x800008e8
0x80000fe0: fec42783  lw a5, -20(s0)
0x80000fe4: 00179793  slli a5, a5, 1
0x80000fe8: 00078593  addi a1, a5, 0
0x80000fec: 8011b7b7  lui a5, 0x8011b
0x80000ff0: 75478513  addi a0, a5, 1876
0x80000ff4: 8f5ff0ef  jal ra, 0x800008e8
0x80000ff8: 801237b7  lui a5, 0x80123
0x80000ffc: 5e478613  addi a2, a5, 1508
0x80001000: 8011b7b7  lui a5, 0x8011b
0x80001004: 75478593  addi a1, a5, 1876
0x80001008: 801147b7  lui a5, 0x80114
0x8000100c: 8c478513  addi a0, a5, -1852
0x80001010: c04ff0ef  jal ra, 0x80000414
0x80001014: 8012b7b7  lui a5, 0x8012b
0x80001018: 47478613  addi a2, a5, 1140
0x8000101c: 8011b7b7  lui a5, 0x8011b
0x80001020: 75478593  addi a1, a5, 1876
0x80001024: 801147b7  lui a5, 0x80114
0x80001028: 8c478513  addi a0, a5, -1852
0x8000102c: d4cff0ef  jal ra, 0x80000578
0x80001030: 8012b7b7  lui a5, 0x8012b
0x80001034: 47478593  addi a1, a5, 1140
0x80001038: 801237b7  lui a5, 0x80123
0x8000103c: 5e478513  addi a0, a5, 1508
0x80001040: fbcff0ef  jal ra, 0x800007fc
0x80001044: 00050793  addi a5, a0, 0
0x80001048: 00079863  bne a5, x0, 0x80001058
0x8000104c: ee5ff0ef  jal ra, 0x80000f30
0x80001050: 00000793  addi a5, x0, 0
0x80001054: 10c0006f  jal x0, 0x80001160
0x80001058: fec42783  lw a5, -20(s0)
0x8000105c: 00178793  addi a5, a5, 1
0x80001060: fef42623  sw a5, -20(s0)
0x80001064: fec42703  lw a4, -20(s0)
0x80001068: 00900793  addi a5, x0, 9
0x8000106c: f6e7d2e3  bge a5, a4, 0x80000fd0
0x80001070: fe042423  sw x0, -24(s0)
0x80001074: 0c00006f  jal x0, 0x80001134
0x80001078: fe842603  lw a2, -24(s0)
0x8000107c: 3e800593  addi a1, x0, 1000
0x80001080: 801337b7  lui a5, 0x80133

